target datalayout = "e-m:e-p270:32:32-p271:32:32-p272:64:64-i64:64-i128:128-f80:128-n8:16:32:64-S128"
target triple = "x86_64-pc-linux-gnu"

%"class.smt::check_at_labels" = type <{ ptr, i8, [7 x i8] }>
%class.buffer = type { ptr, i32, i32, [128 x i8] }
%class.symbol = type { ptr }

; Function Attrs: mustprogress nounwind uwtable
define linkonce_odr hidden noundef i32 @_ZNK6bufferI6symbolLb1ELj16EE4sizeEv(ptr noundef nonnull align 8 dereferenceable(144) %0) #4 comdat align 2 {
  %2 = alloca ptr, align 8
  store ptr %0, ptr %2, align 8, !tbaa !44
  %3 = load ptr, ptr %2, align 8
  %4 = getelementptr inbounds nuw %class.buffer, ptr %3, i32 0, i32 1
  %5 = load i32, ptr %4, align 8, !tbaa !48
  ret i32 %5
}

; Function Attrs: mustprogress uwtable
define linkonce_odr hidden noundef ptr @_ZN6bufferI6symbolLb1ELj16EE3endEv(ptr noundef nonnull align 8 dereferenceable(144) %0) #6 comdat align 2 {
  %2 = alloca ptr, align 8
  store ptr %0, ptr %2, align 8, !tbaa !44
  %3 = load ptr, ptr %2, align 8
  %4 = getelementptr inbounds nuw %class.buffer, ptr %3, i32 0, i32 0
  %5 = load ptr, ptr %4, align 8, !tbaa !46
  %6 = call noundef i32 @_ZNK6bufferI6symbolLb1ELj16EE4sizeEv(ptr noundef nonnull align 8 dereferenceable(144) %3)
  %7 = zext i32 %6 to i64
  %8 = getelementptr inbounds nuw %class.symbol, ptr %5, i64 %7
  ret ptr %8
}

; Function Attrs: mustprogress nounwind uwtable
define linkonce_odr hidden noundef ptr @_ZN6bufferI6symbolLb1ELj16EE5beginEv(ptr noundef nonnull align 8 dereferenceable(144) %0) #4 comdat align 2 {
  %2 = alloca ptr, align 8
  store ptr %0, ptr %2, align 8, !tbaa !44
  %3 = load ptr, ptr %2, align 8
  %4 = getelementptr inbounds nuw %class.buffer, ptr %3, i32 0, i32 0
  %5 = load ptr, ptr %4, align 8, !tbaa !46
  ret ptr %5
}

; Function Attrs: mustprogress nounwind uwtable
define linkonce_odr hidden void @_ZN6bufferI6symbolLb1ELj16EEC2Ev(ptr noundef nonnull align 8 dereferenceable(144) %0) unnamed_addr #4 comdat align 2 {
  %2 = alloca ptr, align 8
  store ptr %0, ptr %2, align 8, !tbaa !44
  %3 = load ptr, ptr %2, align 8
  %4 = getelementptr inbounds nuw %class.buffer, ptr %3, i32 0, i32 0
  %5 = getelementptr inbounds nuw %class.buffer, ptr %3, i32 0, i32 3
  %6 = getelementptr inbounds [128 x i8], ptr %5, i64 0, i64 0
  store ptr %6, ptr %4, align 8, !tbaa !46
  %7 = getelementptr inbounds nuw %class.buffer, ptr %3, i32 0, i32 1
  store i32 0, ptr %7, align 8, !tbaa !48
  %8 = getelementptr inbounds nuw %class.buffer, ptr %3, i32 0, i32 2
  store i32 16, ptr %8, align 4, !tbaa !49
  ret void
}

; Function Attrs: mustprogress uwtable
define hidden noundef i32 @_ZN3smt15check_at_labels19count_at_labels_litEP4exprb(ptr noundef nonnull align 8 dereferenceable(9) %0, ptr noundef %1, i1 noundef zeroext %2) #6 align 2 personality ptr @__gxx_personality_v0 {
  %4 = alloca ptr, align 8
  %5 = alloca ptr, align 8
  %6 = alloca i8, align 1
  %7 = alloca i32, align 4
  %8 = alloca %class.buffer, align 8
  %9 = alloca i8, align 1
  %10 = alloca ptr, align 8
  %11 = alloca i32, align 4
  %12 = alloca ptr, align 8
  %13 = alloca ptr, align 8
  %14 = alloca ptr, align 8
  store ptr %0, ptr %4, align 8, !tbaa !28
  store ptr %1, ptr %5, align 8, !tbaa !30
  %15 = zext i1 %2 to i8
  store i8 %15, ptr %6, align 1, !tbaa !10
  %16 = load ptr, ptr %4, align 8
  call void @llvm.lifetime.start.p0(i64 4, ptr %7) #3
  store i32 0, ptr %7, align 4, !tbaa !8
  call void @llvm.lifetime.start.p0(i64 144, ptr %8) #3
  call void @_ZN6bufferI6symbolLb1ELj16EEC2Ev(ptr noundef nonnull align 8 dereferenceable(144) %8) #3
  call void @llvm.lifetime.start.p0(i64 1, ptr %9) #3
  %17 = getelementptr inbounds nuw %"class.smt::check_at_labels", ptr %16, i32 0, i32 0
  %18 = load ptr, ptr %17, align 8, !tbaa !37
  %19 = load ptr, ptr %5, align 8, !tbaa !30
  %20 = invoke noundef zeroext i1 @_ZNK11ast_manager12is_label_litEPK4exprR6bufferI6symbolLb1ELj16EE(ptr noundef nonnull align 8 dereferenceable(976) %18, ptr noundef %19, ptr noundef nonnull align 8 dereferenceable(144) %8)
          to label %21 unwind label %53

21:                                               ; preds = %3
  br i1 %20, label %36, label %22

22:                                               ; preds = %21
  %23 = getelementptr inbounds nuw %"class.smt::check_at_labels", ptr %16, i32 0, i32 0
  %24 = load ptr, ptr %23, align 8, !tbaa !37
  %25 = load ptr, ptr %5, align 8, !tbaa !30
  %26 = invoke noundef zeroext i1 @_ZNK11ast_manager8is_labelEPK4exprRbR6bufferI6symbolLb1ELj16EE(ptr noundef nonnull align 8 dereferenceable(976) %24, ptr noundef %25, ptr noundef nonnull align 1 dereferenceable(1) %9, ptr noundef nonnull align 8 dereferenceable(144) %8)
          to label %27 unwind label %53

27:                                               ; preds = %22
  br i1 %26, label %28, label %76

28:                                               ; preds = %27
  %29 = load i8, ptr %9, align 1, !tbaa !10, !range !12, !noundef !13
  %30 = trunc i8 %29 to i1
  %31 = zext i1 %30 to i32
  %32 = load i8, ptr %6, align 1, !tbaa !10, !range !12, !noundef !13
  %33 = trunc i8 %32 to i1
  %34 = zext i1 %33 to i32
  %35 = icmp eq i32 %31, %34
  br i1 %35, label %36, label %76

36:                                               ; preds = %28, %21
  call void @llvm.lifetime.start.p0(i64 8, ptr %12) #3
  %37 = invoke noundef ptr @_ZN6bufferI6symbolLb1ELj16EE5beginEv(ptr noundef nonnull align 8 dereferenceable(144) %8)
          to label %38 unwind label %57

38:                                               ; preds = %36
  store ptr %37, ptr %12, align 8, !tbaa !41
  call void @llvm.lifetime.start.p0(i64 8, ptr %13) #3
  %39 = invoke noundef ptr @_ZN6bufferI6symbolLb1ELj16EE3endEv(ptr noundef nonnull align 8 dereferenceable(144) %8)
          to label %40 unwind label %61

40:                                               ; preds = %38
  store ptr %39, ptr %13, align 8, !tbaa !41
  br label %41

41:                                               ; preds = %70, %40
  %42 = load ptr, ptr %12, align 8, !tbaa !41
  %43 = load ptr, ptr %13, align 8, !tbaa !41
  %44 = icmp ne ptr %42, %43
  br i1 %44, label %45, label %73

45:                                               ; preds = %41
  call void @llvm.lifetime.start.p0(i64 8, ptr %14) #3
  %46 = load ptr, ptr %12, align 8, !tbaa !41
  store ptr %46, ptr %14, align 8, !tbaa !41
  %47 = load ptr, ptr %14, align 8, !tbaa !41
  %48 = invoke noundef zeroext i1 @_ZNK6symbol8containsEc(ptr noundef nonnull align 8 dereferenceable(8) %47, i8 noundef signext 64)
          to label %49 unwind label %65

49:                                               ; preds = %45
  br i1 %48, label %50, label %69

50:                                               ; preds = %49
  %51 = load i32, ptr %7, align 4, !tbaa !8
  %52 = add i32 %51, 1
  store i32 %52, ptr %7, align 4, !tbaa !8
  br label %69

53:                                               ; preds = %22, %3
  %54 = landingpad { ptr, i32 }
          cleanup
  %55 = extractvalue { ptr, i32 } %54, 0
  store ptr %55, ptr %10, align 8
  %56 = extractvalue { ptr, i32 } %54, 1
  store i32 %56, ptr %11, align 4
  br label %78

57:                                               ; preds = %36
  %58 = landingpad { ptr, i32 }
          cleanup
  %59 = extractvalue { ptr, i32 } %58, 0
  store ptr %59, ptr %10, align 8
  %60 = extractvalue { ptr, i32 } %58, 1
  store i32 %60, ptr %11, align 4
  br label %75

61:                                               ; preds = %38
  %62 = landingpad { ptr, i32 }
          cleanup
  %63 = extractvalue { ptr, i32 } %62, 0
  store ptr %63, ptr %10, align 8
  %64 = extractvalue { ptr, i32 } %62, 1
  store i32 %64, ptr %11, align 4
  br label %74

65:                                               ; preds = %45
  %66 = landingpad { ptr, i32 }
          cleanup
  %67 = extractvalue { ptr, i32 } %66, 0
  store ptr %67, ptr %10, align 8
  %68 = extractvalue { ptr, i32 } %66, 1
  store i32 %68, ptr %11, align 4
  call void @llvm.lifetime.end.p0(i64 8, ptr %14) #3
  br label %74

69:                                               ; preds = %50, %49
  call void @llvm.lifetime.end.p0(i64 8, ptr %14) #3
  br label %70

70:                                               ; preds = %69
  %71 = load ptr, ptr %12, align 8, !tbaa !41
  %72 = getelementptr inbounds nuw %class.symbol, ptr %71, i32 1
  store ptr %72, ptr %12, align 8, !tbaa !41
  br label %41, !llvm.loop !43

73:                                               ; preds = %41
  call void @llvm.lifetime.end.p0(i64 8, ptr %13) #3
  call void @llvm.lifetime.end.p0(i64 8, ptr %12) #3
  br label %76

74:                                               ; preds = %65, %61
  call void @llvm.lifetime.end.p0(i64 8, ptr %13) #3
  br label %75

75:                                               ; preds = %74, %57
  call void @llvm.lifetime.end.p0(i64 8, ptr %12) #3
  br label %78

76:                                               ; preds = %73, %28, %27
  %77 = load i32, ptr %7, align 4, !tbaa !8
  call void @llvm.lifetime.end.p0(i64 1, ptr %9) #3
  call void @_ZN6bufferI6symbolLb1ELj16EED2Ev(ptr noundef nonnull align 8 dereferenceable(144) %8) #3
  call void @llvm.lifetime.end.p0(i64 144, ptr %8) #3
  call void @llvm.lifetime.end.p0(i64 4, ptr %7) #3
  ret i32 %77

78:                                               ; preds = %75, %53
  call void @llvm.lifetime.end.p0(i64 1, ptr %9) #3
  call void @_ZN6bufferI6symbolLb1ELj16EED2Ev(ptr noundef nonnull align 8 dereferenceable(144) %8) #3
  call void @llvm.lifetime.end.p0(i64 144, ptr %8) #3
  call void @llvm.lifetime.end.p0(i64 4, ptr %7) #3
  br label %79

79:                                               ; preds = %78
  %80 = load ptr, ptr %10, align 8
  %81 = load i32, ptr %11, align 4
  %82 = insertvalue { ptr, i32 } poison, ptr %80, 0
  %83 = insertvalue { ptr, i32 } %82, i32 %81, 1
  resume { ptr, i32 } %83
}