; Function Attrs: mustprogress uwtable
define hidden noundef i32 @_ZN3smt15check_at_labels19count_at_labels_litEP4exprb(ptr noundef nonnull readonly align 8 captures(none) dereferenceable(9) %0, ptr noundef %1, i1 noundef zeroext %2) local_unnamed_addr #4 align 2 personality ptr @__gxx_personality_v0 {
  %4 = alloca %class.buffer, align 8
  %5 = alloca i8, align 1
  call void @llvm.lifetime.start.p0(i64 144, ptr nonnull %4) #20
  %6 = getelementptr inbounds nuw i8, ptr %4, i64 16
  store ptr %6, ptr %4, align 8, !tbaa !34
  %7 = getelementptr inbounds nuw i8, ptr %4, i64 8
  store i32 0, ptr %7, align 8, !tbaa !37
  %8 = getelementptr inbounds nuw i8, ptr %4, i64 12
  store i32 16, ptr %8, align 4, !tbaa !38
  call void @llvm.lifetime.start.p0(i64 1, ptr nonnull %5) #20
  %9 = load ptr, ptr %0, align 8, !tbaa !39
  %10 = invoke noundef zeroext i1 @_ZNK11ast_manager12is_label_litEPK4exprR6bufferI6symbolLb1ELj16EE(ptr noundef nonnull align 8 dereferenceable(976) %9, ptr noundef %1, ptr noundef nonnull align 8 dereferenceable(144) %4)
          to label %11 unwind label %29

11:                                               ; preds = %3
  br i1 %10, label %20, label %12

12:                                               ; preds = %11
  %13 = load ptr, ptr %0, align 8, !tbaa !39
  %14 = invoke noundef zeroext i1 @_ZNK11ast_manager8is_labelEPK4exprRbR6bufferI6symbolLb1ELj16EE(ptr noundef nonnull align 8 dereferenceable(976) %13, ptr noundef %1, ptr noundef nonnull align 1 dereferenceable(1) %5, ptr noundef nonnull align 8 dereferenceable(144) %4)
          to label %15 unwind label %29

15:                                               ; preds = %12
  br i1 %14, label %16, label %.loopexit

16:                                               ; preds = %15
  %17 = load i8, ptr %5, align 1, !tbaa !40, !range !32, !noundef !33
  %18 = zext i1 %2 to i8
  %19 = icmp eq i8 %17, %18
  br i1 %19, label %20, label %.loopexit

20:                                               ; preds = %16, %11
  %21 = load ptr, ptr %4, align 8, !tbaa !34
  %22 = load i32, ptr %7, align 8, !tbaa !37
  %23 = zext i32 %22 to i64
  %24 = getelementptr inbounds nuw %class.symbol, ptr %21, i64 %23
  %.not20 = icmp eq i32 %22, 0
  br i1 %.not20, label %.loopexit, label %.lr.ph

.lr.ph:                                           ; preds = %20, %26
  %.122 = phi i32 [ %spec.select, %26 ], [ 0, %20 ]
  %.01421 = phi ptr [ %28, %26 ], [ %21, %20 ]
  %25 = invoke noundef zeroext i1 @_ZNK6symbol8containsEc(ptr noundef nonnull align 8 dereferenceable(8) %.01421, i8 noundef signext 64)
          to label %26 unwind label %31

26:                                               ; preds = %.lr.ph
  %27 = zext i1 %25 to i32
  %spec.select = add i32 %.122, %27
  %28 = getelementptr inbounds nuw i8, ptr %.01421, i64 8
  %.not = icmp eq ptr %28, %24
  br i1 %.not, label %.loopexit, label %.lr.ph, !llvm.loop !41

29:                                               ; preds = %12, %3
  %30 = landingpad { ptr, i32 }
          cleanup
  br label %39

31:                                               ; preds = %.lr.ph
  %32 = landingpad { ptr, i32 }
          cleanup
  br label %39

.loopexit:                                        ; preds = %26, %20, %16, %15
  %.0 = phi i32 [ 0, %16 ], [ 0, %15 ], [ 0, %20 ], [ %spec.select, %26 ]
  call void @llvm.lifetime.end.p0(i64 1, ptr nonnull %5) #20
  %33 = load ptr, ptr %4, align 8, !tbaa !34
  %.not.i.i.i = icmp eq ptr %33, %6
  %34 = icmp eq ptr %33, null
  %or.cond.i.i.i = or i1 %.not.i.i.i, %34
  br i1 %or.cond.i.i.i, label %_ZN6bufferI6symbolLb1ELj16EED2Ev.exit, label %35

35:                                               ; preds = %.loopexit
  invoke void @_ZN6memory10deallocateEPv(ptr noundef nonnull %33)
          to label %_ZN6bufferI6symbolLb1ELj16EED2Ev.exit unwind label %36

36:                                               ; preds = %35
  %37 = landingpad { ptr, i32 }
          catch ptr null
  %38 = extractvalue { ptr, i32 } %37, 0
  call void @__clang_call_terminate(ptr %38) #21
  unreachable

_ZN6bufferI6symbolLb1ELj16EED2Ev.exit:            ; preds = %.loopexit, %35
  call void @llvm.lifetime.end.p0(i64 144, ptr nonnull %4) #20
  ret i32 %.0

39:                                               ; preds = %31, %29
  %.pn.pn = phi { ptr, i32 } [ %30, %29 ], [ %32, %31 ]
  call void @llvm.lifetime.end.p0(i64 1, ptr nonnull %5) #20
  call void @_ZN6bufferI6symbolLb1ELj16EED2Ev(ptr noundef nonnull align 8 dereferenceable(144) %4) #20
  call void @llvm.lifetime.end.p0(i64 144, ptr nonnull %4) #20
  resume { ptr, i32 } %.pn.pn
}